; Function Attrs: nofree norecurse nosync nounwind memory(read, inaccessiblemem: none) uwtable
define range(i32 0, -2147483648) i32 @Llb_NonlinCompPerms(ptr noundef readonly captures(none) %0, ptr noundef readonly captures(none) %1) local_unnamed_addr #9 {
  %3 = getelementptr inbounds nuw i8, ptr %0, i64 136
  %4 = load i32, ptr %3, align 8, !tbaa !88
  %5 = icmp sgt i32 %4, 0
  br i1 %5, label %.lr.ph, label %._crit_edge

.lr.ph:                                           ; preds = %2
  %6 = getelementptr inbounds nuw i8, ptr %0, i64 152
  %7 = load ptr, ptr %6, align 8, !tbaa !89
  %8 = getelementptr inbounds nuw i8, ptr %0, i64 312
  %9 = load ptr, ptr %8, align 8, !tbaa !86
  %wide.trip.count = zext nneg i32 %4 to i64
  br label %10

10:                                               ; preds = %.lr.ph, %26
  %indvars.iv = phi i64 [ 0, %.lr.ph ], [ %indvars.iv.next, %26 ]
  %.01819 = phi i32 [ 0, %.lr.ph ], [ %.1, %26 ]
  %11 = getelementptr inbounds nuw i32, ptr %9, i64 %indvars.iv
  %12 = load i32, ptr %11, align 4, !tbaa !48
  %13 = sext i32 %12 to i64
  %14 = getelementptr inbounds %struct.DdSubtable, ptr %7, i64 %13
  %15 = getelementptr inbounds nuw i8, ptr %14, i64 16
  %16 = load i32, ptr %15, align 8, !tbaa !90
  %17 = getelementptr inbounds nuw i8, ptr %14, i64 24
  %18 = load i32, ptr %17, align 8, !tbaa !91
  %19 = add i32 %18, 1
  %20 = icmp eq i32 %16, %19
  br i1 %20, label %26, label %21

21:                                               ; preds = %10
  %22 = getelementptr inbounds nuw i32, ptr %1, i64 %indvars.iv
  %23 = load i32, ptr %22, align 4, !tbaa !48
  %sub = sub nsw i32 %12, %23
  %24 = tail call i32 @llvm.abs.i32(i32 %sub, i1 true)
  %25 = add nuw nsw i32 %24, %.01819
  br label %26

26:                                               ; preds = %10, %21
  %.1 = phi i32 [ %.01819, %10 ], [ %25, %21 ]
  %indvars.iv.next = add nuw nsw i64 %indvars.iv, 1
  %exitcond.not = icmp eq i64 %indvars.iv.next, %wide.trip.count
  br i1 %exitcond.not, label %._crit_edge, label %10, !llvm.loop !92

._crit_edge:                                      ; preds = %26, %2
  %.018.lcssa = phi i32 [ 0, %2 ], [ %.1, %26 ]
  ret i32 %.018.lcssa
}